	.text
	.def	@feat.00;
	.scl	3;
	.type	0;
	.endef
	.globl	@feat.00
.set @feat.00, 0
	.file	"spmv-10x-DOUBLE.c"
	.def	sprintf;
	.scl	2;
	.type	32;
	.endef
	.section	.text,"xr",discard,sprintf
	.globl	sprintf
	.p2align	4, 0x90
sprintf:
.Lfunc_begin0:
	.cv_func_id 0
	.cv_file	1 "C:\\Program Files (x86)\\Windows Kits\\10\\Include\\10.0.22621.0\\ucrt\\stdio.h" "C1A1FBC43E7D45F0EA4AE539DDCFFB19" 1
	.cv_loc	0 1 1771 0
.seh_proc sprintf
	subq	$72, %rsp
	.seh_stackalloc 72
	.seh_endprologue
	movq	%r9, 104(%rsp)
	movq	%r8, 96(%rsp)
.Ltmp0:
	movq	%rdx, 64(%rsp)
	movq	%rcx, 56(%rsp)
	leaq	96(%rsp), %rax
	.cv_loc	0 1 1774 0
	movq	%rax, 40(%rsp)
	.cv_loc	0 1 1776 0
	movq	40(%rsp), %r9
	movq	64(%rsp), %rdx
	movq	56(%rsp), %rcx
	xorl	%eax, %eax
	movl	%eax, %r8d
	callq	_vsprintf_l
	movl	%eax, 52(%rsp)
	.cv_loc	0 1 1779 0
	movl	52(%rsp), %eax
	addq	$72, %rsp
	retq
.Ltmp1:
.Lfunc_end0:
	.seh_endproc

	.def	vsprintf;
	.scl	2;
	.type	32;
	.endef
	.section	.text,"xr",discard,vsprintf
	.globl	vsprintf
	.p2align	4, 0x90
vsprintf:
.Lfunc_begin1:
	.cv_func_id 1
	.cv_loc	1 1 1473 0
.seh_proc vsprintf
	subq	$72, %rsp
	.seh_stackalloc 72
	.seh_endprologue
.Ltmp2:
	movq	%r8, 64(%rsp)
	movq	%rdx, 56(%rsp)
	movq	%rcx, 48(%rsp)
	.cv_loc	1 1 1474 0
	movq	64(%rsp), %rax
	movq	56(%rsp), %r8
	movq	48(%rsp), %rcx
	movq	$-1, %rdx
	xorl	%r9d, %r9d
	movq	%rax, 32(%rsp)
	callq	_vsnprintf_l
	nop
	addq	$72, %rsp
	retq
.Ltmp3:
.Lfunc_end1:
	.seh_endproc

	.def	_snprintf;
	.scl	2;
	.type	32;
	.endef
	.section	.text,"xr",discard,_snprintf
	.globl	_snprintf
	.p2align	4, 0x90
_snprintf:
.Lfunc_begin2:
	.cv_func_id 2
	.cv_loc	2 1 1947 0
.seh_proc _snprintf
	subq	$72, %rsp
	.seh_stackalloc 72
	.seh_endprologue
	movq	%r9, 104(%rsp)
.Ltmp4:
	movq	%r8, 64(%rsp)
	movq	%rdx, 56(%rsp)
	movq	%rcx, 48(%rsp)
	leaq	104(%rsp), %rax
	.cv_loc	2 1 1950 0
	movq	%rax, 32(%rsp)
	.cv_loc	2 1 1951 0
	movq	32(%rsp), %r9
	movq	64(%rsp), %r8
	movq	56(%rsp), %rdx
	movq	48(%rsp), %rcx
	callq	_vsnprintf
	movl	%eax, 44(%rsp)
	.cv_loc	2 1 1953 0
	movl	44(%rsp), %eax
	addq	$72, %rsp
	retq
.Ltmp5:
.Lfunc_end2:
	.seh_endproc

	.def	_vsnprintf;
	.scl	2;
	.type	32;
	.endef
	.section	.text,"xr",discard,_vsnprintf
	.globl	_vsnprintf
	.p2align	4, 0x90
_vsnprintf:
.Lfunc_begin3:
	.cv_func_id 3
	.cv_loc	3 1 1411 0
.seh_proc _vsnprintf
	subq	$72, %rsp
	.seh_stackalloc 72
	.seh_endprologue
.Ltmp6:
	movq	%r9, 64(%rsp)
	movq	%r8, 56(%rsp)
	movq	%rdx, 48(%rsp)
	movq	%rcx, 40(%rsp)
	.cv_loc	3 1 1412 0
	movq	64(%rsp), %rax
	movq	56(%rsp), %r8
	movq	48(%rsp), %rdx
	movq	40(%rsp), %rcx
	xorl	%r9d, %r9d
	movq	%rax, 32(%rsp)
	callq	_vsnprintf_l
	nop
	addq	$72, %rsp
	retq
.Ltmp7:
.Lfunc_end3:
	.seh_endproc

	.def	get_cpu_frequency;
	.scl	2;
	.type	32;
	.endef
	.globl	__real@41e1e1a300000000
	.section	.rdata,"dr",discard,__real@41e1e1a300000000
	.p2align	3, 0x0
__real@41e1e1a300000000:
	.quad	0x41e1e1a300000000
	.text
	.globl	get_cpu_frequency
	.p2align	4, 0x90
get_cpu_frequency:
.Lfunc_begin4:
	.cv_func_id 4
	.cv_file	2 "C:\\Users\\DELL\\OneDrive\\Documents\\samplesss\\spmv-10x-DOUBLE.c" "F20A4F1B4410F2E22E42401A6D75F772" 1
	.cv_loc	4 2 11 0
	movsd	__real@41e1e1a300000000(%rip), %xmm0
	retq
.Ltmp8:
.Lfunc_end4:

	.def	rdtsc;
	.scl	2;
	.type	32;
	.endef
	.globl	rdtsc
	.p2align	4, 0x90
rdtsc:
.Lfunc_begin5:
	.cv_func_id 5
	.cv_loc	5 2 14 0
.seh_proc rdtsc
	pushq	%rax
	.seh_stackalloc 8
	.seh_endprologue
.Ltmp9:
	.cv_loc	5 2 16 0
	#APP
	rdtsc
	#NO_APP
	movl	%eax, 4(%rsp)
	movl	%edx, (%rsp)
	.cv_loc	5 2 17 0
	movl	(%rsp), %eax
	shlq	$32, %rax
	movl	4(%rsp), %ecx
	orq	%rcx, %rax
	popq	%rcx
	retq
.Ltmp10:
.Lfunc_end5:
	.seh_endproc

	.def	csc_matrix_vector;
	.scl	2;
	.type	32;
	.endef
	.globl	csc_matrix_vector
	.p2align	4, 0x90
csc_matrix_vector:
.Lfunc_begin6:
	.cv_func_id 6
	.cv_loc	6 2 34 0
.seh_proc csc_matrix_vector
	subq	$48, %rsp
	.seh_stackalloc 48
	.seh_endprologue
	movq	%rcx, (%rsp)
.Ltmp11:
	movq	%r9, 40(%rsp)
	movq	%r8, 32(%rsp)
	movq	%rdx, 24(%rsp)
	movq	%rcx, 16(%rsp)
.Ltmp12:
	.cv_loc	6 2 36 0
	movl	$0, 12(%rsp)
.LBB6_1:
	movq	(%rsp), %rcx
	movl	12(%rsp), %eax
	cmpl	(%rcx), %eax
	jge	.LBB6_8
	.cv_loc	6 2 38 0
	movq	(%rsp), %rax
.Ltmp13:
	movq	32(%rax), %rax
	movslq	12(%rsp), %rcx
	movl	(%rax,%rcx,4), %eax
	movl	%eax, 8(%rsp)
.LBB6_3:
	movq	(%rsp), %rcx
	movl	8(%rsp), %eax
	movq	32(%rcx), %rcx
	movl	12(%rsp), %edx
	addl	$1, %edx
	movslq	%edx, %rdx
	cmpl	(%rcx,%rdx,4), %eax
	jge	.LBB6_6
	.cv_loc	6 2 42 0
	movq	(%rsp), %rcx
.Ltmp14:
	movq	32(%rsp), %rax
	movslq	8(%rsp), %rdx
	movsd	(%rax,%rdx,8), %xmm0
	movq	40(%rsp), %rax
	movslq	8(%rsp), %rdx
	mulsd	(%rax,%rdx,8), %xmm0
	movq	24(%rsp), %rax
	movq	24(%rcx), %rcx
	movslq	8(%rsp), %rdx
	movslq	(%rcx,%rdx,4), %rcx
	addsd	(%rax,%rcx,8), %xmm0
	movsd	%xmm0, (%rax,%rcx,8)
.Ltmp15:
	.cv_loc	6 2 38 0
	movl	8(%rsp), %eax
	addl	$1, %eax
	movl	%eax, 8(%rsp)
	jmp	.LBB6_3
.Ltmp16:
.LBB6_6:
	.cv_loc	6 2 46 0
	jmp	.LBB6_7
.Ltmp17:
.LBB6_7:
	.cv_loc	6 2 36 0
	movl	12(%rsp), %eax
	addl	$1, %eax
	movl	%eax, 12(%rsp)
	jmp	.LBB6_1
.Ltmp18:
.LBB6_8:
	.cv_loc	6 2 48 0
	addq	$48, %rsp
	retq
.Ltmp19:
.Lfunc_end6:
	.seh_endproc

	.def	Value_vector;
	.scl	2;
	.type	32;
	.endef
	.globl	Value_vector
	.p2align	4, 0x90
Value_vector:
.Lfunc_begin7:
	.cv_func_id 7
	.cv_loc	7 2 50 0
.seh_proc Value_vector
	subq	$40, %rsp
	.seh_stackalloc 40
	.seh_endprologue
	movq	%rcx, (%rsp)
.Ltmp20:
	movq	%r8, 32(%rsp)
	movq	%rdx, 24(%rsp)
	movq	%rcx, 16(%rsp)
.Ltmp21:
	.cv_loc	7 2 51 0
	movl	$0, 12(%rsp)
.LBB7_1:
	movq	(%rsp), %rcx
	movl	12(%rsp), %eax
	cmpl	8(%rcx), %eax
	jge	.LBB7_4
	.cv_loc	7 2 52 0
	movq	(%rsp), %rcx
.Ltmp22:
	movq	24(%rsp), %rax
	movq	40(%rcx), %rcx
	movslq	12(%rsp), %rdx
	movslq	(%rcx,%rdx,4), %rcx
	movsd	(%rax,%rcx,8), %xmm0
	movq	32(%rsp), %rax
	movslq	12(%rsp), %rcx
	movsd	%xmm0, (%rax,%rcx,8)
.Ltmp23:
	.cv_loc	7 2 51 0
	movl	12(%rsp), %eax
	addl	$1, %eax
	movl	%eax, 12(%rsp)
	jmp	.LBB7_1
.Ltmp24:
.LBB7_4:
	.cv_loc	7 2 56 0
	addq	$40, %rsp
	retq
.Ltmp25:
.Lfunc_end7:
	.seh_endproc

	.def	main;
	.scl	2;
	.type	32;
	.endef
	.globl	__real@4024000000000000
	.section	.rdata,"dr",discard,__real@4024000000000000
	.p2align	3, 0x0
__real@4024000000000000:
	.quad	0x4024000000000000
	.globl	__xmm@00000000000000004530000043300000
	.section	.rdata,"dr",discard,__xmm@00000000000000004530000043300000
	.p2align	4, 0x0
__xmm@00000000000000004530000043300000:
	.long	1127219200
	.long	1160773632
	.long	0
	.long	0
	.globl	__xmm@45300000000000004330000000000000
	.section	.rdata,"dr",discard,__xmm@45300000000000004330000000000000
	.p2align	4, 0x0
__xmm@45300000000000004330000000000000:
	.quad	0x4330000000000000
	.quad	0x4530000000000000
	.globl	__real@40dfffc000000000
	.section	.rdata,"dr",discard,__real@40dfffc000000000
	.p2align	3, 0x0
__real@40dfffc000000000:
	.quad	0x40dfffc000000000
	.text
	.globl	main
	.p2align	4, 0x90
main:
.Lfunc_begin8:
	.cv_func_id 8
	.cv_loc	8 2 59 0
.seh_proc main
	subq	$488, %rsp
	.seh_stackalloc 488
	.seh_endprologue
.Ltmp26:
	movl	$0, 484(%rsp)
	movq	%rdx, 472(%rsp)
	movl	%ecx, 468(%rsp)
	.cv_loc	8 2 68 0
	cmpl	$2, 468(%rsp)
	jge	.LBB8_2
.Ltmp27:
	.cv_loc	8 2 69 0
	movq	472(%rsp), %rax
	movq	(%rax), %rax
	movq	%rax, 88(%rsp)
	movl	$2, %ecx
	callq	__acrt_iob_func
	movq	88(%rsp), %r8
	movq	%rax, %rcx
	leaq	"??_C@_0CE@BIKOBMBB@Usage?3?5?$CFs?5?$FLmatrix?9market?9filenam@"(%rip), %rdx
	callq	fprintf
	.cv_loc	8 2 70 0
	movl	$1, %ecx
	callq	exit
.Ltmp28:
.LBB8_2:
	.cv_loc	8 2 72 0
	movq	472(%rsp), %rax
	movq	8(%rax), %rcx
	leaq	"??_C@_01KDCPPGHE@r?$AA@"(%rip), %rdx
	callq	fopen
	movq	%rax, 448(%rsp)
	cmpq	$0, %rax
	jne	.LBB8_4
.Ltmp29:
	.cv_loc	8 2 73 0
	movl	$1, %ecx
	callq	exit
.Ltmp30:
.LBB8_4:
	.cv_loc	8 2 74 0
	jmp	.LBB8_5
.Ltmp31:
.LBB8_5:
	.cv_loc	8 2 79 0
	movq	448(%rsp), %rcx
	leaq	460(%rsp), %rdx
	callq	mm_read_banner
	cmpl	$0, %eax
	je	.LBB8_7
.Ltmp32:
	.cv_loc	8 2 80 0
	leaq	"??_C@_0CJ@MPICKCGA@Could?5not?5process?5Matrix?5Market?5@"(%rip), %rcx
	callq	printf
	.cv_loc	8 2 81 0
	movl	$1, %ecx
	callq	exit
.Ltmp33:
.LBB8_7:
	.cv_loc	8 2 84 0
	movsbl	462(%rsp), %eax
	cmpl	$67, %eax
	jne	.LBB8_11
	movsbl	460(%rsp), %eax
	cmpl	$77, %eax
	jne	.LBB8_11
	movsbl	461(%rsp), %eax
	cmpl	$67, %eax
	jne	.LBB8_11
.Ltmp34:
	.cv_loc	8 2 85 0
	leaq	"??_C@_0CK@GGOBCCKJ@Sorry?0?5this?5application?5does?5not@"(%rip), %rcx
	callq	printf
	.cv_loc	8 2 86 0
	leaq	460(%rsp), %rcx
	callq	mm_typecode_to_str
	movq	%rax, %rdx
	leaq	"??_C@_0BK@FLDFLNI@Market?5Market?5type?3?5?$FL?$CFs?$FN?6?$AA@"(%rip), %rcx
	callq	printf
	.cv_loc	8 2 87 0
	movl	$1, %ecx
	callq	exit
.Ltmp35:
.LBB8_11:
	.cv_loc	8 2 90 0
	movq	448(%rsp), %rcx
	leaq	444(%rsp), %rdx
	leaq	440(%rsp), %r8
	leaq	436(%rsp), %r9
	callq	mm_read_mtx_crd_size
	movl	%eax, 464(%rsp)
	cmpl	$0, %eax
	je	.LBB8_13
.Ltmp36:
	.cv_loc	8 2 91 0
	movl	$1, %ecx
	callq	exit
.Ltmp37:
.LBB8_13:
	.cv_loc	8 2 93 0
	movslq	436(%rsp), %rcx
	shlq	$2, %rcx
.Ltmp38:
	callq	malloc
.Ltmp39:
	movq	%rax, 424(%rsp)
	.cv_loc	8 2 94 0
	movslq	436(%rsp), %rcx
	shlq	$2, %rcx
.Ltmp40:
	callq	malloc
.Ltmp41:
	movq	%rax, 416(%rsp)
	.cv_loc	8 2 95 0
	movslq	436(%rsp), %rcx
	shlq	$3, %rcx
.Ltmp42:
	callq	malloc
.Ltmp43:
	movq	%rax, 408(%rsp)
	.cv_loc	8 2 96 0
	movslq	436(%rsp), %rcx
	shlq	$3, %rcx
.Ltmp44:
	callq	malloc
.Ltmp45:
	movq	%rax, 400(%rsp)
.Ltmp46:
	.cv_loc	8 2 99 0
	movl	$0, 396(%rsp)
.LBB8_14:
	movl	396(%rsp), %eax
	cmpl	436(%rsp), %eax
	jge	.LBB8_17
.Ltmp47:
	.cv_loc	8 2 100 0
	movq	408(%rsp), %rdx
	movslq	396(%rsp), %rax
	shlq	$3, %rax
	addq	%rax, %rdx
	movq	416(%rsp), %r9
	movslq	396(%rsp), %rax
	shlq	$2, %rax
	addq	%rax, %r9
	movq	424(%rsp), %r8
	movslq	396(%rsp), %rax
	shlq	$2, %rax
	addq	%rax, %r8
	movq	448(%rsp), %rcx
	movq	%rsp, %rax
	movq	%rdx, 32(%rax)
	leaq	"??_C@_0L@DPCLJHDN@?$CFd?5?$CFd?5?$CFlg?6?$AA@"(%rip), %rdx
	callq	fscanf
	.cv_loc	8 2 101 0
	movq	424(%rsp), %rax
	movslq	396(%rsp), %rcx
	movl	(%rax,%rcx,4), %edx
	addl	$-1, %edx
	movl	%edx, (%rax,%rcx,4)
	.cv_loc	8 2 102 0
	movq	416(%rsp), %rax
	movslq	396(%rsp), %rcx
	movl	(%rax,%rcx,4), %edx
	addl	$-1, %edx
	movl	%edx, (%rax,%rcx,4)
.Ltmp48:
	.cv_loc	8 2 99 0
	movl	396(%rsp), %eax
	addl	$1, %eax
	movl	%eax, 396(%rsp)
	jmp	.LBB8_14
.Ltmp49:
.LBB8_17:
	.cv_loc	8 2 109 0
	movl	444(%rsp), %eax
	movl	%eax, 344(%rsp)
	.cv_loc	8 2 110 0
	movl	440(%rsp), %eax
	movl	%eax, 348(%rsp)
	.cv_loc	8 2 111 0
	movl	436(%rsp), %eax
	movl	%eax, 352(%rsp)
	.cv_loc	8 2 112 0
	movq	408(%rsp), %rax
	movq	%rax, 360(%rsp)
	.cv_loc	8 2 113 0
	movq	424(%rsp), %rax
	movq	%rax, 368(%rsp)
	.cv_loc	8 2 114 0
	movq	416(%rsp), %rax
	movq	%rax, 384(%rsp)
	.cv_loc	8 2 115 0
	movl	348(%rsp), %eax
	addl	$1, %eax
	movslq	%eax, %rcx
	shlq	$2, %rcx
.Ltmp50:
	callq	malloc
.Ltmp51:
	movq	%rax, 376(%rsp)
	.cv_loc	8 2 116 0
	movq	$0, 336(%rsp)
	.cv_loc	8 2 118 0
	movl	$0, 332(%rsp)
	.cv_loc	8 2 119 0
	movq	376(%rsp), %rax
	movl	$0, (%rax)
.Ltmp52:
	.cv_loc	8 2 120 0
	movl	$0, 328(%rsp)
.LBB8_18:
	movl	328(%rsp), %eax
	cmpl	436(%rsp), %eax
	jge	.LBB8_23
.Ltmp53:
	.cv_loc	8 2 121 0
	movq	416(%rsp), %rax
	movslq	328(%rsp), %rcx
	movl	(%rax,%rcx,4), %eax
	cmpl	332(%rsp), %eax
	je	.LBB8_21
.Ltmp54:
	.cv_loc	8 2 122 0
	movq	416(%rsp), %rax
	movslq	328(%rsp), %rcx
	movl	(%rax,%rcx,4), %eax
	movl	%eax, 332(%rsp)
	.cv_loc	8 2 123 0
	movl	328(%rsp), %edx
	movq	376(%rsp), %rax
	movslq	332(%rsp), %rcx
	movl	%edx, (%rax,%rcx,4)
.Ltmp55:
.LBB8_21:
	.cv_loc	8 2 125 0
	jmp	.LBB8_22
.Ltmp56:
.LBB8_22:
	.cv_loc	8 2 120 0
	movl	328(%rsp), %eax
	addl	$1, %eax
	movl	%eax, 328(%rsp)
	jmp	.LBB8_18
.Ltmp57:
.LBB8_23:
	.cv_loc	8 2 126 0
	movl	436(%rsp), %edx
	movq	376(%rsp), %rax
	movslq	440(%rsp), %rcx
	movl	%edx, (%rax,%rcx,4)
	.cv_loc	8 2 130 0
	movslq	440(%rsp), %rcx
	shlq	$3, %rcx
.Ltmp58:
	callq	malloc
.Ltmp59:
	movq	%rax, 320(%rsp)
	.cv_loc	8 2 131 0
	movslq	444(%rsp), %rcx
	shlq	$3, %rcx
.Ltmp60:
	callq	malloc
.Ltmp61:
	movq	%rax, 312(%rsp)
	.cv_loc	8 2 134 0
	movsd	__real@4024000000000000(%rip), %xmm0
	movsd	%xmm0, 304(%rsp)
.Ltmp62:
	.cv_loc	8 2 135 0
	movl	$0, 300(%rsp)
.LBB8_24:
	movl	300(%rsp), %eax
	cmpl	440(%rsp), %eax
	jge	.LBB8_27
.Ltmp63:
	.cv_loc	8 2 137 0
	callq	rand
	cvtsi2sd	%eax, %xmm0
	movsd	__real@40dfffc000000000(%rip), %xmm1
	divsd	%xmm1, %xmm0
	movsd	__real@4024000000000000(%rip), %xmm1
	mulsd	%xmm1, %xmm0
	movq	320(%rsp), %rax
	movslq	300(%rsp), %rcx
	movsd	%xmm0, (%rax,%rcx,8)
.Ltmp64:
	.cv_loc	8 2 135 0
	movl	300(%rsp), %eax
	addl	$1, %eax
	movl	%eax, 300(%rsp)
	jmp	.LBB8_24
.Ltmp65:
.LBB8_27:
	.cv_loc	8 2 141 0
	movl	$0, 296(%rsp)
.LBB8_28:
	movl	296(%rsp), %eax
	cmpl	436(%rsp), %eax
	jge	.LBB8_31
.Ltmp66:
	.cv_loc	8 2 142 0
	movq	400(%rsp), %rax
	movslq	296(%rsp), %rcx
	xorps	%xmm0, %xmm0
	movsd	%xmm0, (%rax,%rcx,8)
.Ltmp67:
	.cv_loc	8 2 141 0
	movl	296(%rsp), %eax
	addl	$1, %eax
	movl	%eax, 296(%rsp)
	jmp	.LBB8_28
.Ltmp68:
.LBB8_31:
	.cv_loc	8 2 146 0
	movl	$0, 292(%rsp)
.LBB8_32:
	movl	292(%rsp), %eax
	cmpl	444(%rsp), %eax
	jge	.LBB8_35
.Ltmp69:
	.cv_loc	8 2 147 0
	movq	312(%rsp), %rax
	movslq	292(%rsp), %rcx
	xorps	%xmm0, %xmm0
	movsd	%xmm0, (%rax,%rcx,8)
.Ltmp70:
	.cv_loc	8 2 146 0
	movl	292(%rsp), %eax
	addl	$1, %eax
	movl	%eax, 292(%rsp)
	jmp	.LBB8_32
.Ltmp71:
.LBB8_35:
	.cv_loc	8 2 152 0
	callq	rdtsc
	movq	%rax, 280(%rsp)
	.cv_loc	8 2 155 0
	callq	get_cpu_frequency
	movsd	%xmm0, 272(%rsp)
	.cv_loc	8 2 157 0
	callq	rdtsc
	movq	%rax, 264(%rsp)
	.cv_loc	8 2 158 0
	movq	400(%rsp), %r8
	movq	320(%rsp), %rdx
	movups	344(%rsp), %xmm0
	movups	360(%rsp), %xmm1
	movups	376(%rsp), %xmm2
	movaps	%xmm2, 240(%rsp)
	movaps	%xmm1, 224(%rsp)
	movaps	%xmm0, 208(%rsp)
	leaq	208(%rsp), %rcx
	callq	Value_vector
	.cv_loc	8 2 160 0
	callq	rdtsc
	movq	%rax, 200(%rsp)
	.cv_loc	8 2 161 0
	movq	200(%rsp), %rax
	movq	264(%rsp), %rcx
	subq	%rcx, %rax
	movq	%rax, %xmm0
	movaps	__xmm@00000000000000004530000043300000(%rip), %xmm1
	movaps	%xmm1, 48(%rsp)
	punpckldq	%xmm1, %xmm0
	movapd	__xmm@45300000000000004330000000000000(%rip), %xmm1
	movaps	%xmm1, 64(%rsp)
	subpd	%xmm1, %xmm0
	movaps	%xmm0, %xmm1
	unpckhpd	%xmm0, %xmm0
	addsd	%xmm1, %xmm0
	movsd	272(%rsp), %xmm1
	divsd	%xmm1, %xmm0
	movsd	%xmm0, 192(%rsp)
	.cv_loc	8 2 162 0
	movsd	192(%rsp), %xmm0
	leaq	"??_C@_0DF@GOFACPEA@Time?5elapsed?5to?5form?5the?5new?5vec@"(%rip), %rcx
	movaps	%xmm0, %xmm1
	movq	%xmm0, %rdx
	callq	printf
	.cv_loc	8 2 171 0
	callq	rdtsc
	movq	%rax, 184(%rsp)
	.cv_loc	8 2 172 0
	movq	408(%rsp), %r9
	movq	400(%rsp), %r8
	movq	312(%rsp), %rdx
	movups	344(%rsp), %xmm0
	movups	360(%rsp), %xmm1
	movups	376(%rsp), %xmm2
	movaps	%xmm2, 160(%rsp)
	movaps	%xmm1, 144(%rsp)
	movaps	%xmm0, 128(%rsp)
	leaq	128(%rsp), %rcx
	callq	csc_matrix_vector
	.cv_loc	8 2 174 0
	callq	rdtsc
	movaps	48(%rsp), %xmm2
	movaps	64(%rsp), %xmm1
	movq	%rax, 120(%rsp)
	.cv_loc	8 2 175 0
	movq	120(%rsp), %rax
	movq	184(%rsp), %rcx
	subq	%rcx, %rax
	movq	%rax, %xmm0
	punpckldq	%xmm2, %xmm0
	subpd	%xmm1, %xmm0
	movaps	%xmm0, %xmm1
	unpckhpd	%xmm0, %xmm0
	addsd	%xmm1, %xmm0
	movsd	272(%rsp), %xmm1
	divsd	%xmm1, %xmm0
	movsd	%xmm0, 112(%rsp)
	.cv_loc	8 2 176 0
	movsd	112(%rsp), %xmm0
	leaq	"??_C@_0DK@NHMCGP@Time?5elapsed?5for?5multiplying?5and@"(%rip), %rcx
	movaps	%xmm0, %xmm1
	movq	%xmm0, %rdx
	callq	printf
	.cv_loc	8 2 179 0
	callq	rdtsc
	movaps	48(%rsp), %xmm2
	movaps	64(%rsp), %xmm1
	movq	%rax, 104(%rsp)
	.cv_loc	8 2 180 0
	movq	104(%rsp), %rax
	movq	280(%rsp), %rcx
	subq	%rcx, %rax
	movq	%rax, %xmm0
	punpckldq	%xmm2, %xmm0
	subpd	%xmm1, %xmm0
	movaps	%xmm0, %xmm1
	unpckhpd	%xmm0, %xmm0
	addsd	%xmm1, %xmm0
	divsd	272(%rsp), %xmm0
	movsd	%xmm0, 96(%rsp)
	.cv_loc	8 2 181 0
	movsd	96(%rsp), %xmm0
	leaq	"??_C@_0CB@DNDLHEOG@Time?5elaptsed?5TOTAL?3?5?$CFf?5seconds?6@"(%rip), %rcx
	movaps	%xmm0, %xmm1
	movq	%xmm0, %rdx
	callq	printf
	.cv_loc	8 2 182 0
	movl	436(%rsp), %r9d
	movl	440(%rsp), %r8d
	movl	444(%rsp), %edx
	leaq	"??_C@_0CC@ENPJFCDH@rows?$DN?$CFd?5columns?$DN?5?$CFd?5non?9zero?$DN?$CFd?5@"(%rip), %rcx
	callq	printf
	.cv_loc	8 2 196 0
	movl	484(%rsp), %eax
	addq	$488, %rsp
	retq
.Ltmp72:
.Lfunc_end8:
	.seh_endproc

	.def	fprintf;
	.scl	2;
	.type	32;
	.endef
	.section	.text,"xr",discard,fprintf
	.globl	fprintf
	.p2align	4, 0x90
fprintf:
.Lfunc_begin9:
	.cv_func_id 9
	.cv_loc	9 1 837 0
.seh_proc fprintf
	subq	$72, %rsp
	.seh_stackalloc 72
	.seh_endprologue
	movq	%r9, 104(%rsp)
	movq	%r8, 96(%rsp)
.Ltmp73:
	movq	%rdx, 64(%rsp)
	movq	%rcx, 56(%rsp)
	leaq	96(%rsp), %rax
	.cv_loc	9 1 840 0
	movq	%rax, 40(%rsp)
	.cv_loc	9 1 841 0
	movq	40(%rsp), %r9
	movq	64(%rsp), %rdx
	movq	56(%rsp), %rcx
	xorl	%eax, %eax
	movl	%eax, %r8d
	callq	_vfprintf_l
	movl	%eax, 52(%rsp)
	.cv_loc	9 1 843 0
	movl	52(%rsp), %eax
	addq	$72, %rsp
	retq
.Ltmp74:
.Lfunc_end9:
	.seh_endproc

	.def	printf;
	.scl	2;
	.type	32;
	.endef
	.section	.text,"xr",discard,printf
	.globl	printf
	.p2align	4, 0x90
printf:
.Lfunc_begin10:
	.cv_func_id 10
	.cv_loc	10 1 956 0
.seh_proc printf
	subq	$72, %rsp
	.seh_stackalloc 72
	.seh_endprologue
	movq	%r9, 104(%rsp)
	movq	%r8, 96(%rsp)
	movq	%rdx, 88(%rsp)
.Ltmp75:
	movq	%rcx, 64(%rsp)
	leaq	88(%rsp), %rax
	.cv_loc	10 1 959 0
	movq	%rax, 48(%rsp)
	.cv_loc	10 1 960 0
	movq	48(%rsp), %rax
	movq	%rax, 40(%rsp)
	movq	64(%rsp), %rax
	movq	%rax, 32(%rsp)
	movl	$1, %ecx
	callq	__acrt_iob_func
	movq	32(%rsp), %rdx
	movq	40(%rsp), %r9
	movq	%rax, %rcx
	xorl	%eax, %eax
	movl	%eax, %r8d
	callq	_vfprintf_l
	movl	%eax, 60(%rsp)
	.cv_loc	10 1 962 0
	movl	60(%rsp), %eax
	addq	$72, %rsp
	retq
.Ltmp76:
.Lfunc_end10:
	.seh_endproc

	.def	fscanf;
	.scl	2;
	.type	32;
	.endef
	.section	.text,"xr",discard,fscanf
	.globl	fscanf
	.p2align	4, 0x90
fscanf:
.Lfunc_begin11:
	.cv_func_id 11
	.cv_loc	11 1 1206 0
.seh_proc fscanf
	subq	$72, %rsp
	.seh_stackalloc 72
	.seh_endprologue
	movq	%r9, 104(%rsp)
	movq	%r8, 96(%rsp)
.Ltmp77:
	movq	%rdx, 64(%rsp)
	movq	%rcx, 56(%rsp)
	leaq	96(%rsp), %rax
	.cv_loc	11 1 1209 0
	movq	%rax, 40(%rsp)
	.cv_loc	11 1 1210 0
	movq	40(%rsp), %r9
	movq	64(%rsp), %rdx
	movq	56(%rsp), %rcx
	xorl	%eax, %eax
	movl	%eax, %r8d
	callq	_vfscanf_l
	movl	%eax, 52(%rsp)
	.cv_loc	11 1 1212 0
	movl	52(%rsp), %eax
	addq	$72, %rsp
	retq
.Ltmp78:
.Lfunc_end11:
	.seh_endproc

	.def	_vsprintf_l;
	.scl	2;
	.type	32;
	.endef
	.section	.text,"xr",discard,_vsprintf_l
	.globl	_vsprintf_l
	.p2align	4, 0x90
_vsprintf_l:
.Lfunc_begin12:
	.cv_func_id 12
	.cv_loc	12 1 1458 0
.seh_proc _vsprintf_l
	subq	$72, %rsp
	.seh_stackalloc 72
	.seh_endprologue
.Ltmp79:
	movq	%r9, 64(%rsp)
	movq	%r8, 56(%rsp)
	movq	%rdx, 48(%rsp)
	movq	%rcx, 40(%rsp)
	.cv_loc	12 1 1459 0
	movq	64(%rsp), %rax
	movq	56(%rsp), %r9
	movq	48(%rsp), %r8
	movq	40(%rsp), %rcx
	movq	$-1, %rdx
	movq	%rax, 32(%rsp)
	callq	_vsnprintf_l
	nop
	addq	$72, %rsp
	retq
.Ltmp80:
.Lfunc_end12:
	.seh_endproc

	.def	_vsnprintf_l;
	.scl	2;
	.type	32;
	.endef
	.section	.text,"xr",discard,_vsnprintf_l
	.globl	_vsnprintf_l
	.p2align	4, 0x90
_vsnprintf_l:
.Lfunc_begin13:
	.cv_func_id 13
	.cv_loc	13 1 1391 0
.seh_proc _vsnprintf_l
	subq	$136, %rsp
	.seh_stackalloc 136
	.seh_endprologue
	movq	176(%rsp), %rax
.Ltmp81:
	movq	%r9, 128(%rsp)
	movq	%r8, 120(%rsp)
	movq	%rdx, 112(%rsp)
	movq	%rcx, 104(%rsp)
	.cv_loc	13 1 1392 0
	movq	176(%rsp), %rax
	movq	%rax, 88(%rsp)
	movq	128(%rsp), %rax
	movq	%rax, 80(%rsp)
	movq	120(%rsp), %rax
	movq	%rax, 72(%rsp)
	movq	112(%rsp), %rax
	movq	%rax, 64(%rsp)
	movq	104(%rsp), %rax
	movq	%rax, 56(%rsp)
	callq	__local_stdio_printf_options
	movq	56(%rsp), %rdx
	movq	64(%rsp), %r8
	movq	72(%rsp), %r9
	movq	80(%rsp), %r10
	movq	%rax, %rcx
	movq	88(%rsp), %rax
	movq	(%rcx), %rcx
	orq	$1, %rcx
	movq	%r10, 32(%rsp)
	movq	%rax, 40(%rsp)
	callq	__stdio_common_vsprintf
	movl	%eax, 100(%rsp)
	.cv_loc	13 1 1396 0
	cmpl	$0, 100(%rsp)
	jge	.LBB13_2
	movl	$4294967295, %eax
	movl	%eax, 52(%rsp)
	jmp	.LBB13_3
.LBB13_2:
	movl	100(%rsp), %eax
	movl	%eax, 52(%rsp)
.LBB13_3:
	movl	52(%rsp), %eax
	addq	$136, %rsp
	retq
.Ltmp82:
.Lfunc_end13:
	.seh_endproc

	.def	__local_stdio_printf_options;
	.scl	2;
	.type	32;
	.endef
	.section	.text,"xr",discard,__local_stdio_printf_options
	.globl	__local_stdio_printf_options
	.p2align	4, 0x90
__local_stdio_printf_options:
.Lfunc_begin14:
	.cv_func_id 14
	.cv_file	3 "C:\\Program Files (x86)\\Windows Kits\\10\\Include\\10.0.22621.0\\ucrt\\corecrt_stdio_config.h" "DACF907BDA504AFB0B64F53A242BDAE6" 1
	.cv_loc	14 3 92 0
	leaq	__local_stdio_printf_options._OptionsStorage(%rip), %rax
	retq
.Ltmp83:
.Lfunc_end14:

	.def	_vfprintf_l;
	.scl	2;
	.type	32;
	.endef
	.section	.text,"xr",discard,_vfprintf_l
	.globl	_vfprintf_l
	.p2align	4, 0x90
_vfprintf_l:
.Lfunc_begin15:
	.cv_func_id 15
	.cv_loc	15 1 644 0
.seh_proc _vfprintf_l
	subq	$104, %rsp
	.seh_stackalloc 104
	.seh_endprologue
.Ltmp84:
	movq	%r9, 96(%rsp)
	movq	%r8, 88(%rsp)
	movq	%rdx, 80(%rsp)
	movq	%rcx, 72(%rsp)
	.cv_loc	15 1 645 0
	movq	96(%rsp), %rax
	movq	%rax, 64(%rsp)
	movq	88(%rsp), %rax
	movq	%rax, 56(%rsp)
	movq	80(%rsp), %rax
	movq	%rax, 48(%rsp)
	movq	72(%rsp), %rax
	movq	%rax, 40(%rsp)
	callq	__local_stdio_printf_options
	movq	40(%rsp), %rdx
	movq	48(%rsp), %r8
	movq	56(%rsp), %r9
	movq	%rax, %rcx
	movq	64(%rsp), %rax
	movq	(%rcx), %rcx
	movq	%rax, 32(%rsp)
	callq	__stdio_common_vfprintf
	nop
	addq	$104, %rsp
	retq
.Ltmp85:
.Lfunc_end15:
	.seh_endproc

	.def	_vfscanf_l;
	.scl	2;
	.type	32;
	.endef
	.section	.text,"xr",discard,_vfscanf_l
	.globl	_vfscanf_l
	.p2align	4, 0x90
_vfscanf_l:
.Lfunc_begin16:
	.cv_func_id 16
	.cv_loc	16 1 1064 0
.seh_proc _vfscanf_l
	subq	$104, %rsp
	.seh_stackalloc 104
	.seh_endprologue
.Ltmp86:
	movq	%r9, 96(%rsp)
	movq	%r8, 88(%rsp)
	movq	%rdx, 80(%rsp)
	movq	%rcx, 72(%rsp)
	.cv_loc	16 1 1065 0
	movq	96(%rsp), %rax
	movq	%rax, 64(%rsp)
	movq	88(%rsp), %rax
	movq	%rax, 56(%rsp)
	movq	80(%rsp), %rax
	movq	%rax, 48(%rsp)
	movq	72(%rsp), %rax
	movq	%rax, 40(%rsp)
	callq	__local_stdio_scanf_options
	movq	40(%rsp), %rdx
	movq	48(%rsp), %r8
	movq	56(%rsp), %r9
	movq	%rax, %rcx
	movq	64(%rsp), %rax
	movq	(%rcx), %rcx
	movq	%rax, 32(%rsp)
	callq	__stdio_common_vfscanf
	nop
	addq	$104, %rsp
	retq
.Ltmp87:
.Lfunc_end16:
	.seh_endproc

	.def	__local_stdio_scanf_options;
	.scl	2;
	.type	32;
	.endef
	.section	.text,"xr",discard,__local_stdio_scanf_options
	.globl	__local_stdio_scanf_options
	.p2align	4, 0x90
__local_stdio_scanf_options:
.Lfunc_begin17:
	.cv_func_id 17
	.cv_loc	17 3 102 0
	leaq	__local_stdio_scanf_options._OptionsStorage(%rip), %rax
	retq
.Ltmp88:
.Lfunc_end17:

	.section	.rdata,"dr",discard,"??_C@_0CE@BIKOBMBB@Usage?3?5?$CFs?5?$FLmatrix?9market?9filenam@"
	.globl	"??_C@_0CE@BIKOBMBB@Usage?3?5?$CFs?5?$FLmatrix?9market?9filenam@"
"??_C@_0CE@BIKOBMBB@Usage?3?5?$CFs?5?$FLmatrix?9market?9filenam@":
	.asciz	"Usage: %s [matrix-market-filename]\n"

	.section	.rdata,"dr",discard,"??_C@_01KDCPPGHE@r?$AA@"
	.globl	"??_C@_01KDCPPGHE@r?$AA@"
"??_C@_01KDCPPGHE@r?$AA@":
	.asciz	"r"

	.section	.rdata,"dr",discard,"??_C@_0CJ@MPICKCGA@Could?5not?5process?5Matrix?5Market?5@"
	.globl	"??_C@_0CJ@MPICKCGA@Could?5not?5process?5Matrix?5Market?5@"
"??_C@_0CJ@MPICKCGA@Could?5not?5process?5Matrix?5Market?5@":
	.asciz	"Could not process Matrix Market banner.\n"

	.section	.rdata,"dr",discard,"??_C@_0CK@GGOBCCKJ@Sorry?0?5this?5application?5does?5not@"
	.globl	"??_C@_0CK@GGOBCCKJ@Sorry?0?5this?5application?5does?5not@"
"??_C@_0CK@GGOBCCKJ@Sorry?0?5this?5application?5does?5not@":
	.asciz	"Sorry, this application does not support "

	.section	.rdata,"dr",discard,"??_C@_0BK@FLDFLNI@Market?5Market?5type?3?5?$FL?$CFs?$FN?6?$AA@"
	.globl	"??_C@_0BK@FLDFLNI@Market?5Market?5type?3?5?$FL?$CFs?$FN?6?$AA@"
"??_C@_0BK@FLDFLNI@Market?5Market?5type?3?5?$FL?$CFs?$FN?6?$AA@":
	.asciz	"Market Market type: [%s]\n"

	.section	.rdata,"dr",discard,"??_C@_0L@DPCLJHDN@?$CFd?5?$CFd?5?$CFlg?6?$AA@"
	.globl	"??_C@_0L@DPCLJHDN@?$CFd?5?$CFd?5?$CFlg?6?$AA@"
"??_C@_0L@DPCLJHDN@?$CFd?5?$CFd?5?$CFlg?6?$AA@":
	.asciz	"%d %d %lg\n"

	.section	.rdata,"dr",discard,"??_C@_0DF@GOFACPEA@Time?5elapsed?5to?5form?5the?5new?5vec@"
	.globl	"??_C@_0DF@GOFACPEA@Time?5elapsed?5to?5form?5the?5new?5vec@"
"??_C@_0DF@GOFACPEA@Time?5elapsed?5to?5form?5the?5new?5vec@":
	.asciz	"Time elapsed to form the new vector is : %f seconds\n"

	.section	.rdata,"dr",discard,"??_C@_0DK@NHMCGP@Time?5elapsed?5for?5multiplying?5and@"
	.globl	"??_C@_0DK@NHMCGP@Time?5elapsed?5for?5multiplying?5and@"
"??_C@_0DK@NHMCGP@Time?5elapsed?5for?5multiplying?5and@":
	.asciz	"Time elapsed for multiplying and adding both: %f seconds\n"

	.section	.rdata,"dr",discard,"??_C@_0CB@DNDLHEOG@Time?5elaptsed?5TOTAL?3?5?$CFf?5seconds?6@"
	.globl	"??_C@_0CB@DNDLHEOG@Time?5elaptsed?5TOTAL?3?5?$CFf?5seconds?6@"
"??_C@_0CB@DNDLHEOG@Time?5elaptsed?5TOTAL?3?5?$CFf?5seconds?6@":
	.asciz	"Time elaptsed TOTAL: %f seconds\n"

	.section	.rdata,"dr",discard,"??_C@_0CC@ENPJFCDH@rows?$DN?$CFd?5columns?$DN?5?$CFd?5non?9zero?$DN?$CFd?5@"
	.globl	"??_C@_0CC@ENPJFCDH@rows?$DN?$CFd?5columns?$DN?5?$CFd?5non?9zero?$DN?$CFd?5@"
"??_C@_0CC@ENPJFCDH@rows?$DN?$CFd?5columns?$DN?5?$CFd?5non?9zero?$DN?$CFd?5@":
	.asciz	"rows=%d columns= %d non-zero=%d \n"

	.lcomm	__local_stdio_printf_options._OptionsStorage,8,8
	.lcomm	__local_stdio_scanf_options._OptionsStorage,8,8
	.section	.drectve,"yni"
	.ascii	" /DEFAULTLIB:libcmt.lib"
	.ascii	" /DEFAULTLIB:libircmt.lib"
	.ascii	" /DEFAULTLIB:svml_dispmt.lib"
	.ascii	" /DEFAULTLIB:libdecimal.lib"
	.ascii	" /DEFAULTLIB:libmmt.lib"
	.ascii	" /DEFAULTLIB:oldnames.lib"