	.text
	.def	@feat.00;
	.scl	3;
	.type	0;
	.endef
	.globl	@feat.00
.set @feat.00, 0
	.file	"spmv_size-10x.c"
	.def	sprintf;
	.scl	2;
	.type	32;
	.endef
	.section	.text,"xr",discard,sprintf
	.globl	sprintf
	.p2align	4, 0x90
sprintf:
.Lfunc_begin0:
	.cv_func_id 0
	.cv_file	1 "C:\\Program Files (x86)\\Windows Kits\\10\\Include\\10.0.22621.0\\ucrt\\stdio.h" "C1A1FBC43E7D45F0EA4AE539DDCFFB19" 1
	.cv_loc	0 1 1771 0
.seh_proc sprintf
	subq	$72, %rsp
	.seh_stackalloc 72
	.seh_endprologue
	movq	%r9, 104(%rsp)
	movq	%r8, 96(%rsp)
.Ltmp0:
	movq	%rdx, 64(%rsp)
	movq	%rcx, 56(%rsp)
	leaq	96(%rsp), %rax
	.cv_loc	0 1 1774 0
	movq	%rax, 40(%rsp)
	.cv_loc	0 1 1776 0
	movq	40(%rsp), %r9
	movq	64(%rsp), %rdx
	movq	56(%rsp), %rcx
	xorl	%eax, %eax
	movl	%eax, %r8d
	callq	_vsprintf_l
	movl	%eax, 52(%rsp)
	.cv_loc	0 1 1779 0
	movl	52(%rsp), %eax
	addq	$72, %rsp
	retq
.Ltmp1:
.Lfunc_end0:
	.seh_endproc

	.def	vsprintf;
	.scl	2;
	.type	32;
	.endef
	.section	.text,"xr",discard,vsprintf
	.globl	vsprintf
	.p2align	4, 0x90
vsprintf:
.Lfunc_begin1:
	.cv_func_id 1
	.cv_loc	1 1 1473 0
.seh_proc vsprintf
	subq	$72, %rsp
	.seh_stackalloc 72
	.seh_endprologue
.Ltmp2:
	movq	%r8, 64(%rsp)
	movq	%rdx, 56(%rsp)
	movq	%rcx, 48(%rsp)
	.cv_loc	1 1 1474 0
	movq	64(%rsp), %rax
	movq	56(%rsp), %r8
	movq	48(%rsp), %rcx
	movq	$-1, %rdx
	xorl	%r9d, %r9d
	movq	%rax, 32(%rsp)
	callq	_vsnprintf_l
	nop
	addq	$72, %rsp
	retq
.Ltmp3:
.Lfunc_end1:
	.seh_endproc

	.def	_snprintf;
	.scl	2;
	.type	32;
	.endef
	.section	.text,"xr",discard,_snprintf
	.globl	_snprintf
	.p2align	4, 0x90
_snprintf:
.Lfunc_begin2:
	.cv_func_id 2
	.cv_loc	2 1 1947 0
.seh_proc _snprintf
	subq	$72, %rsp
	.seh_stackalloc 72
	.seh_endprologue
	movq	%r9, 104(%rsp)
.Ltmp4:
	movq	%r8, 64(%rsp)
	movq	%rdx, 56(%rsp)
	movq	%rcx, 48(%rsp)
	leaq	104(%rsp), %rax
	.cv_loc	2 1 1950 0
	movq	%rax, 32(%rsp)
	.cv_loc	2 1 1951 0
	movq	32(%rsp), %r9
	movq	64(%rsp), %r8
	movq	56(%rsp), %rdx
	movq	48(%rsp), %rcx
	callq	_vsnprintf
	movl	%eax, 44(%rsp)
	.cv_loc	2 1 1953 0
	movl	44(%rsp), %eax
	addq	$72, %rsp
	retq
.Ltmp5:
.Lfunc_end2:
	.seh_endproc

	.def	_vsnprintf;
	.scl	2;
	.type	32;
	.endef
	.section	.text,"xr",discard,_vsnprintf
	.globl	_vsnprintf
	.p2align	4, 0x90
_vsnprintf:
.Lfunc_begin3:
	.cv_func_id 3
	.cv_loc	3 1 1411 0
.seh_proc _vsnprintf
	subq	$72, %rsp
	.seh_stackalloc 72
	.seh_endprologue
.Ltmp6:
	movq	%r9, 64(%rsp)
	movq	%r8, 56(%rsp)
	movq	%rdx, 48(%rsp)
	movq	%rcx, 40(%rsp)
	.cv_loc	3 1 1412 0
	movq	64(%rsp), %rax
	movq	56(%rsp), %r8
	movq	48(%rsp), %rdx
	movq	40(%rsp), %rcx
	xorl	%r9d, %r9d
	movq	%rax, 32(%rsp)
	callq	_vsnprintf_l
	nop
	addq	$72, %rsp
	retq
.Ltmp7:
.Lfunc_end3:
	.seh_endproc

	.def	get_cpu_frequency;
	.scl	2;
	.type	32;
	.endef
	.globl	__real@4f0f0d18
	.section	.rdata,"dr",discard,__real@4f0f0d18
	.p2align	2, 0x0
__real@4f0f0d18:
	.long	0x4f0f0d18
	.text
	.globl	get_cpu_frequency
	.p2align	4, 0x90
get_cpu_frequency:
.Lfunc_begin4:
	.cv_func_id 4
	.cv_file	2 "C:\\Users\\DELL\\OneDrive\\Documents\\samplesss\\spmv_size-10x.c" "1320995F22B3E72AA72D4750310183C6" 1
	.cv_loc	4 2 11 0
	movss	__real@4f0f0d18(%rip), %xmm0
	retq
.Ltmp8:
.Lfunc_end4:

	.def	rdtsc;
	.scl	2;
	.type	32;
	.endef
	.globl	rdtsc
	.p2align	4, 0x90
rdtsc:
.Lfunc_begin5:
	.cv_func_id 5
	.cv_loc	5 2 14 0
.seh_proc rdtsc
	pushq	%rax
	.seh_stackalloc 8
	.seh_endprologue
.Ltmp9:
	.cv_loc	5 2 16 0
	#APP
	rdtsc
	#NO_APP
	movl	%eax, 4(%rsp)
	movl	%edx, (%rsp)
	.cv_loc	5 2 17 0
	movl	(%rsp), %eax
	shlq	$32, %rax
	movl	4(%rsp), %ecx
	orq	%rcx, %rax
	popq	%rcx
	retq
.Ltmp10:
.Lfunc_end5:
	.seh_endproc

	.def	converfloatToFloat;
	.scl	2;
	.type	32;
	.endef
	.globl	converfloatToFloat
	.p2align	4, 0x90
converfloatToFloat:
.Lfunc_begin6:
	.cv_func_id 6
	.cv_loc	6 2 31 0
.seh_proc converfloatToFloat
	subq	$32, %rsp
	.seh_stackalloc 32
	.seh_endprologue
.Ltmp11:
	movl	%r8d, 28(%rsp)
	movq	%rdx, 16(%rsp)
	movq	%rcx, 8(%rsp)
.Ltmp12:
	.cv_loc	6 2 32 0
	movl	$0, 4(%rsp)
.LBB6_1:
	movl	4(%rsp), %eax
	cmpl	28(%rsp), %eax
	jge	.LBB6_4
.Ltmp13:
	.cv_loc	6 2 33 0
	movq	8(%rsp), %rax
	movslq	4(%rsp), %rcx
	movsd	(%rax,%rcx,8), %xmm0
	cvtsd2ss	%xmm0, %xmm0
	movq	16(%rsp), %rax
	movslq	4(%rsp), %rcx
	movss	%xmm0, (%rax,%rcx,4)
.Ltmp14:
	.cv_loc	6 2 32 0
	movl	4(%rsp), %eax
	addl	$1, %eax
	movl	%eax, 4(%rsp)
	jmp	.LBB6_1
.Ltmp15:
.LBB6_4:
	.cv_loc	6 2 35 0
	addq	$32, %rsp
	retq
.Ltmp16:
.Lfunc_end6:
	.seh_endproc

	.def	csc_matrix_vector;
	.scl	2;
	.type	32;
	.endef
	.globl	csc_matrix_vector
	.p2align	4, 0x90
csc_matrix_vector:
.Lfunc_begin7:
	.cv_func_id 7
	.cv_loc	7 2 38 0
.seh_proc csc_matrix_vector
	subq	$48, %rsp
	.seh_stackalloc 48
	.seh_endprologue
	movq	%rcx, (%rsp)
.Ltmp17:
	movq	%r9, 40(%rsp)
	movq	%r8, 32(%rsp)
	movq	%rdx, 24(%rsp)
	movq	%rcx, 16(%rsp)
.Ltmp18:
	.cv_loc	7 2 40 0
	movl	$0, 12(%rsp)
.LBB7_1:
	movq	(%rsp), %rcx
	movl	12(%rsp), %eax
	cmpl	(%rcx), %eax
	jge	.LBB7_8
	.cv_loc	7 2 42 0
	movq	(%rsp), %rax
.Ltmp19:
	movq	32(%rax), %rax
	movslq	12(%rsp), %rcx
	movl	(%rax,%rcx,4), %eax
	movl	%eax, 8(%rsp)
.LBB7_3:
	movq	(%rsp), %rcx
	movl	8(%rsp), %eax
	movq	32(%rcx), %rcx
	movl	12(%rsp), %edx
	addl	$1, %edx
	movslq	%edx, %rdx
	cmpl	(%rcx,%rdx,4), %eax
	jge	.LBB7_6
	.cv_loc	7 2 46 0
	movq	(%rsp), %rcx
.Ltmp20:
	movq	32(%rsp), %rax
	movslq	8(%rsp), %rdx
	movss	(%rax,%rdx,4), %xmm0
	movq	40(%rsp), %rax
	movslq	8(%rsp), %rdx
	mulss	(%rax,%rdx,4), %xmm0
	movq	24(%rsp), %rax
	movq	24(%rcx), %rcx
	movslq	8(%rsp), %rdx
	movslq	(%rcx,%rdx,4), %rcx
	addss	(%rax,%rcx,4), %xmm0
	movss	%xmm0, (%rax,%rcx,4)
.Ltmp21:
	.cv_loc	7 2 42 0
	movl	8(%rsp), %eax
	addl	$1, %eax
	movl	%eax, 8(%rsp)
	jmp	.LBB7_3
.Ltmp22:
.LBB7_6:
	.cv_loc	7 2 50 0
	jmp	.LBB7_7
.Ltmp23:
.LBB7_7:
	.cv_loc	7 2 40 0
	movl	12(%rsp), %eax
	addl	$1, %eax
	movl	%eax, 12(%rsp)
	jmp	.LBB7_1
.Ltmp24:
.LBB7_8:
	.cv_loc	7 2 52 0
	addq	$48, %rsp
	retq
.Ltmp25:
.Lfunc_end7:
	.seh_endproc

	.def	Value_vector;
	.scl	2;
	.type	32;
	.endef
	.globl	Value_vector
	.p2align	4, 0x90
Value_vector:
.Lfunc_begin8:
	.cv_func_id 8
	.cv_loc	8 2 54 0
.seh_proc Value_vector
	subq	$40, %rsp
	.seh_stackalloc 40
	.seh_endprologue
	movq	%rcx, (%rsp)
.Ltmp26:
	movq	%r8, 32(%rsp)
	movq	%rdx, 24(%rsp)
	movq	%rcx, 16(%rsp)
.Ltmp27:
	.cv_loc	8 2 55 0
	movl	$0, 12(%rsp)
.LBB8_1:
	movq	(%rsp), %rcx
	movl	12(%rsp), %eax
	cmpl	8(%rcx), %eax
	jge	.LBB8_4
	.cv_loc	8 2 56 0
	movq	(%rsp), %rcx
.Ltmp28:
	movq	24(%rsp), %rax
	movq	40(%rcx), %rcx
	movslq	12(%rsp), %rdx
	movslq	(%rcx,%rdx,4), %rcx
	movss	(%rax,%rcx,4), %xmm0
	movq	32(%rsp), %rax
	movslq	12(%rsp), %rcx
	movss	%xmm0, (%rax,%rcx,4)
.Ltmp29:
	.cv_loc	8 2 55 0
	movl	12(%rsp), %eax
	addl	$1, %eax
	movl	%eax, 12(%rsp)
	jmp	.LBB8_1
.Ltmp30:
.LBB8_4:
	.cv_loc	8 2 60 0
	addq	$40, %rsp
	retq
.Ltmp31:
.Lfunc_end8:
	.seh_endproc

	.def	main;
	.scl	2;
	.type	32;
	.endef
	.globl	__real@41200000
	.section	.rdata,"dr",discard,__real@41200000
	.p2align	2, 0x0
__real@41200000:
	.long	0x41200000
	.globl	__real@4024000000000000
	.section	.rdata,"dr",discard,__real@4024000000000000
	.p2align	3, 0x0
__real@4024000000000000:
	.quad	0x4024000000000000
	.globl	__real@46fffe00
	.section	.rdata,"dr",discard,__real@46fffe00
	.p2align	2, 0x0
__real@46fffe00:
	.long	0x46fffe00
	.text
	.globl	main
	.p2align	4, 0x90
main:
.Lfunc_begin9:
	.cv_func_id 9
	.cv_loc	9 2 63 0
.seh_proc main
	subq	$472, %rsp
	.seh_stackalloc 472
	.seh_endprologue
.Ltmp32:
	movl	$0, 468(%rsp)
	movq	%rdx, 456(%rsp)
	movl	%ecx, 452(%rsp)
	.cv_loc	9 2 72 0
	cmpl	$2, 452(%rsp)
	jge	.LBB9_2
.Ltmp33:
	.cv_loc	9 2 73 0
	movq	456(%rsp), %rax
	movq	(%rax), %rax
	movq	%rax, 72(%rsp)
	movl	$2, %ecx
	callq	__acrt_iob_func
	movq	72(%rsp), %r8
	movq	%rax, %rcx
	leaq	"??_C@_0CE@BIKOBMBB@Usage?3?5?$CFs?5?$FLmatrix?9market?9filenam@"(%rip), %rdx
	callq	fprintf
	.cv_loc	9 2 74 0
	movl	$1, %ecx
	callq	exit
.Ltmp34:
.LBB9_2:
	.cv_loc	9 2 76 0
	movq	456(%rsp), %rax
	movq	8(%rax), %rcx
	leaq	"??_C@_01KDCPPGHE@r?$AA@"(%rip), %rdx
	callq	fopen
	movq	%rax, 432(%rsp)
	cmpq	$0, %rax
	jne	.LBB9_4
.Ltmp35:
	.cv_loc	9 2 77 0
	movl	$1, %ecx
	callq	exit
.Ltmp36:
.LBB9_4:
	.cv_loc	9 2 78 0
	jmp	.LBB9_5
.Ltmp37:
.LBB9_5:
	.cv_loc	9 2 83 0
	movq	432(%rsp), %rcx
	leaq	444(%rsp), %rdx
	callq	mm_read_banner
	cmpl	$0, %eax
	je	.LBB9_7
.Ltmp38:
	.cv_loc	9 2 84 0
	leaq	"??_C@_0CJ@MPICKCGA@Could?5not?5process?5Matrix?5Market?5@"(%rip), %rcx
	callq	printf
	.cv_loc	9 2 85 0
	movl	$1, %ecx
	callq	exit
.Ltmp39:
.LBB9_7:
	.cv_loc	9 2 88 0
	movsbl	446(%rsp), %eax
	cmpl	$67, %eax
	jne	.LBB9_11
	movsbl	444(%rsp), %eax
	cmpl	$77, %eax
	jne	.LBB9_11
	movsbl	445(%rsp), %eax
	cmpl	$67, %eax
	jne	.LBB9_11
.Ltmp40:
	.cv_loc	9 2 89 0
	leaq	"??_C@_0CK@GGOBCCKJ@Sorry?0?5this?5application?5does?5not@"(%rip), %rcx
	callq	printf
	.cv_loc	9 2 90 0
	leaq	444(%rsp), %rcx
	callq	mm_typecode_to_str
	movq	%rax, %rdx
	leaq	"??_C@_0BK@FLDFLNI@Market?5Market?5type?3?5?$FL?$CFs?$FN?6?$AA@"(%rip), %rcx
	callq	printf
	.cv_loc	9 2 91 0
	movl	$1, %ecx
	callq	exit
.Ltmp41:
.LBB9_11:
	.cv_loc	9 2 94 0
	movq	432(%rsp), %rcx
	leaq	428(%rsp), %rdx
	leaq	424(%rsp), %r8
	leaq	420(%rsp), %r9
	callq	mm_read_mtx_crd_size
	movl	%eax, 448(%rsp)
	cmpl	$0, %eax
	je	.LBB9_13
.Ltmp42:
	.cv_loc	9 2 95 0
	movl	$1, %ecx
	callq	exit
.Ltmp43:
.LBB9_13:
	.cv_loc	9 2 97 0
	movslq	420(%rsp), %rcx
	shlq	$2, %rcx
.Ltmp44:
	callq	malloc
.Ltmp45:
	movq	%rax, 408(%rsp)
	.cv_loc	9 2 98 0
	movslq	420(%rsp), %rcx
	shlq	$2, %rcx
.Ltmp46:
	callq	malloc
.Ltmp47:
	movq	%rax, 400(%rsp)
	.cv_loc	9 2 99 0
	movslq	420(%rsp), %rcx
	shlq	$3, %rcx
.Ltmp48:
	callq	malloc
.Ltmp49:
	movq	%rax, 392(%rsp)
	.cv_loc	9 2 100 0
	movslq	420(%rsp), %rcx
	shlq	$2, %rcx
.Ltmp50:
	callq	malloc
.Ltmp51:
	movq	%rax, 376(%rsp)
	.cv_loc	9 2 101 0
	movslq	420(%rsp), %rcx
	shlq	$2, %rcx
.Ltmp52:
	callq	malloc
.Ltmp53:
	movq	%rax, 384(%rsp)
.Ltmp54:
	.cv_loc	9 2 103 0
	movl	$0, 372(%rsp)
.LBB9_14:
	movl	372(%rsp), %eax
	cmpl	420(%rsp), %eax
	jge	.LBB9_17
.Ltmp55:
	.cv_loc	9 2 104 0
	movq	392(%rsp), %rdx
	movslq	372(%rsp), %rax
	shlq	$3, %rax
	addq	%rax, %rdx
	movq	400(%rsp), %r9
	movslq	372(%rsp), %rax
	shlq	$2, %rax
	addq	%rax, %r9
	movq	408(%rsp), %r8
	movslq	372(%rsp), %rax
	shlq	$2, %rax
	addq	%rax, %r8
	movq	432(%rsp), %rcx
	movq	%rsp, %rax
	movq	%rdx, 32(%rax)
	leaq	"??_C@_0L@DPCLJHDN@?$CFd?5?$CFd?5?$CFlg?6?$AA@"(%rip), %rdx
	callq	fscanf
	.cv_loc	9 2 105 0
	movq	408(%rsp), %rax
	movslq	372(%rsp), %rcx
	movl	(%rax,%rcx,4), %edx
	addl	$-1, %edx
	movl	%edx, (%rax,%rcx,4)
	.cv_loc	9 2 106 0
	movq	400(%rsp), %rax
	movslq	372(%rsp), %rcx
	movl	(%rax,%rcx,4), %edx
	addl	$-1, %edx
	movl	%edx, (%rax,%rcx,4)
.Ltmp56:
	.cv_loc	9 2 103 0
	movl	372(%rsp), %eax
	addl	$1, %eax
	movl	%eax, 372(%rsp)
	jmp	.LBB9_14
.Ltmp57:
.LBB9_17:
	.cv_loc	9 2 109 0
	movl	420(%rsp), %r8d
	movq	384(%rsp), %rdx
	movq	392(%rsp), %rcx
	callq	converfloatToFloat
	.cv_loc	9 2 113 0
	movl	428(%rsp), %eax
	movl	%eax, 320(%rsp)
	.cv_loc	9 2 114 0
	movl	424(%rsp), %eax
	movl	%eax, 324(%rsp)
	.cv_loc	9 2 115 0
	movl	420(%rsp), %eax
	movl	%eax, 328(%rsp)
	.cv_loc	9 2 116 0
	movq	384(%rsp), %rax
	movq	%rax, 336(%rsp)
	.cv_loc	9 2 117 0
	movq	408(%rsp), %rax
	movq	%rax, 344(%rsp)
	.cv_loc	9 2 118 0
	movq	400(%rsp), %rax
	movq	%rax, 360(%rsp)
	.cv_loc	9 2 119 0
	movl	324(%rsp), %eax
	addl	$1, %eax
	movslq	%eax, %rcx
	shlq	$2, %rcx
.Ltmp58:
	callq	malloc
.Ltmp59:
	movq	%rax, 352(%rsp)
	.cv_loc	9 2 120 0
	movq	$0, 312(%rsp)
	.cv_loc	9 2 122 0
	movl	$0, 308(%rsp)
	.cv_loc	9 2 123 0
	movq	352(%rsp), %rax
	movl	$0, (%rax)
.Ltmp60:
	.cv_loc	9 2 124 0
	movl	$0, 304(%rsp)
.LBB9_18:
	movl	304(%rsp), %eax
	cmpl	420(%rsp), %eax
	jge	.LBB9_23
.Ltmp61:
	.cv_loc	9 2 125 0
	movq	400(%rsp), %rax
	movslq	304(%rsp), %rcx
	movl	(%rax,%rcx,4), %eax
	cmpl	308(%rsp), %eax
	je	.LBB9_21
.Ltmp62:
	.cv_loc	9 2 126 0
	movq	400(%rsp), %rax
	movslq	304(%rsp), %rcx
	movl	(%rax,%rcx,4), %eax
	movl	%eax, 308(%rsp)
	.cv_loc	9 2 127 0
	movl	304(%rsp), %edx
	movq	352(%rsp), %rax
	movslq	308(%rsp), %rcx
	movl	%edx, (%rax,%rcx,4)
.Ltmp63:
.LBB9_21:
	.cv_loc	9 2 129 0
	jmp	.LBB9_22
.Ltmp64:
.LBB9_22:
	.cv_loc	9 2 124 0
	movl	304(%rsp), %eax
	addl	$1, %eax
	movl	%eax, 304(%rsp)
	jmp	.LBB9_18
.Ltmp65:
.LBB9_23:
	.cv_loc	9 2 130 0
	movl	420(%rsp), %edx
	movq	352(%rsp), %rax
	movslq	424(%rsp), %rcx
	movl	%edx, (%rax,%rcx,4)
	.cv_loc	9 2 134 0
	movslq	424(%rsp), %rcx
	shlq	$2, %rcx
.Ltmp66:
	callq	malloc
.Ltmp67:
	movq	%rax, 296(%rsp)
	.cv_loc	9 2 135 0
	movslq	428(%rsp), %rcx
	shlq	$2, %rcx
.Ltmp68:
	callq	malloc
.Ltmp69:
	movq	%rax, 288(%rsp)
	.cv_loc	9 2 138 0
	movss	__real@41200000(%rip), %xmm0
	movss	%xmm0, 284(%rsp)
.Ltmp70:
	.cv_loc	9 2 139 0
	movl	$0, 280(%rsp)
.LBB9_24:
	movl	280(%rsp), %eax
	cmpl	424(%rsp), %eax
	jge	.LBB9_27
.Ltmp71:
	.cv_loc	9 2 141 0
	callq	rand
	cvtsi2ss	%eax, %xmm0
	movss	__real@46fffe00(%rip), %xmm1
	divss	%xmm1, %xmm0
	cvtss2sd	%xmm0, %xmm0
	movsd	__real@4024000000000000(%rip), %xmm1
	mulsd	%xmm1, %xmm0
	cvtsd2ss	%xmm0, %xmm0
	movq	296(%rsp), %rax
	movslq	280(%rsp), %rcx
	movss	%xmm0, (%rax,%rcx,4)
.Ltmp72:
	.cv_loc	9 2 139 0
	movl	280(%rsp), %eax
	addl	$1, %eax
	movl	%eax, 280(%rsp)
	jmp	.LBB9_24
.Ltmp73:
.LBB9_27:
	.cv_loc	9 2 145 0
	movl	$0, 276(%rsp)
.LBB9_28:
	movl	276(%rsp), %eax
	cmpl	420(%rsp), %eax
	jge	.LBB9_31
.Ltmp74:
	.cv_loc	9 2 146 0
	movq	376(%rsp), %rax
	movslq	276(%rsp), %rcx
	xorps	%xmm0, %xmm0
	movss	%xmm0, (%rax,%rcx,4)
.Ltmp75:
	.cv_loc	9 2 145 0
	movl	276(%rsp), %eax
	addl	$1, %eax
	movl	%eax, 276(%rsp)
	jmp	.LBB9_28
.Ltmp76:
.LBB9_31:
	.cv_loc	9 2 150 0
	movl	$0, 272(%rsp)
.LBB9_32:
	movl	272(%rsp), %eax
	cmpl	428(%rsp), %eax
	jge	.LBB9_35
.Ltmp77:
	.cv_loc	9 2 151 0
	movq	288(%rsp), %rax
	movslq	272(%rsp), %rcx
	xorps	%xmm0, %xmm0
	movss	%xmm0, (%rax,%rcx,4)
.Ltmp78:
	.cv_loc	9 2 150 0
	movl	272(%rsp), %eax
	addl	$1, %eax
	movl	%eax, 272(%rsp)
	jmp	.LBB9_32
.Ltmp79:
.LBB9_35:
	.cv_loc	9 2 156 0
	callq	rdtsc
	movq	%rax, 264(%rsp)
	.cv_loc	9 2 159 0
	callq	get_cpu_frequency
	movss	%xmm0, 260(%rsp)
	.cv_loc	9 2 161 0
	callq	rdtsc
	movq	%rax, 248(%rsp)
	.cv_loc	9 2 162 0
	movq	376(%rsp), %r8
	movq	296(%rsp), %rdx
	movups	320(%rsp), %xmm0
	movups	336(%rsp), %xmm1
	movups	352(%rsp), %xmm2
	movaps	%xmm2, 224(%rsp)
	movaps	%xmm1, 208(%rsp)
	movaps	%xmm0, 192(%rsp)
	leaq	192(%rsp), %rcx
	callq	Value_vector
	.cv_loc	9 2 164 0
	callq	rdtsc
	movq	%rax, 184(%rsp)
	.cv_loc	9 2 165 0
	movq	184(%rsp), %rax
	movq	248(%rsp), %rcx
	subq	%rcx, %rax
	movq	%rax, %rdx
	shrq	%rdx
	movl	%eax, %ecx
	andl	$1, %ecx
	orq	%rdx, %rcx
	cvtsi2ss	%rcx, %xmm0
	addss	%xmm0, %xmm0
	cvtsi2ss	%rax, %xmm1
	movss	%xmm1, 64(%rsp)
	testq	%rax, %rax
	movss	%xmm0, 68(%rsp)
	js	.LBB9_37
	movss	64(%rsp), %xmm0
	movss	%xmm0, 68(%rsp)
.LBB9_37:
	movss	68(%rsp), %xmm0
	movss	260(%rsp), %xmm1
	divss	%xmm1, %xmm0
	movss	%xmm0, 180(%rsp)
	.cv_loc	9 2 166 0
	movss	180(%rsp), %xmm0
	cvtss2sd	%xmm0, %xmm0
	leaq	"??_C@_0DF@GOFACPEA@Time?5elapsed?5to?5form?5the?5new?5vec@"(%rip), %rcx
	movaps	%xmm0, %xmm1
	movq	%xmm0, %rdx
	callq	printf
	.cv_loc	9 2 175 0
	callq	rdtsc
	movq	%rax, 168(%rsp)
	.cv_loc	9 2 176 0
	movq	384(%rsp), %r9
	movq	376(%rsp), %r8
	movq	288(%rsp), %rdx
	movups	320(%rsp), %xmm0
	movups	336(%rsp), %xmm1
	movups	352(%rsp), %xmm2
	movaps	%xmm2, 144(%rsp)
	movaps	%xmm1, 128(%rsp)
	movaps	%xmm0, 112(%rsp)
	leaq	112(%rsp), %rcx
	callq	csc_matrix_vector
	.cv_loc	9 2 178 0
	callq	rdtsc
	movq	%rax, 104(%rsp)
	.cv_loc	9 2 179 0
	movq	104(%rsp), %rax
	movq	168(%rsp), %rcx
	subq	%rcx, %rax
	movq	%rax, %rdx
	shrq	%rdx
	movl	%eax, %ecx
	andl	$1, %ecx
	orq	%rdx, %rcx
	cvtsi2ss	%rcx, %xmm0
	addss	%xmm0, %xmm0
	cvtsi2ss	%rax, %xmm1
	movss	%xmm1, 56(%rsp)
	testq	%rax, %rax
	movss	%xmm0, 60(%rsp)
	js	.LBB9_39
	movss	56(%rsp), %xmm0
	movss	%xmm0, 60(%rsp)
.LBB9_39:
	movss	60(%rsp), %xmm0
	movss	260(%rsp), %xmm1
	divss	%xmm1, %xmm0
	movss	%xmm0, 100(%rsp)
	.cv_loc	9 2 180 0
	movss	100(%rsp), %xmm0
	cvtss2sd	%xmm0, %xmm0
	leaq	"??_C@_0DK@NHMCGP@Time?5elapsed?5for?5multiplying?5and@"(%rip), %rcx
	movaps	%xmm0, %xmm1
	movq	%xmm0, %rdx
	callq	printf
	.cv_loc	9 2 183 0
	callq	rdtsc
	movq	%rax, 88(%rsp)
	.cv_loc	9 2 184 0
	movq	88(%rsp), %rax
	movq	264(%rsp), %rcx
	subq	%rcx, %rax
	movq	%rax, %rdx
	shrq	%rdx
	movl	%eax, %ecx
	andl	$1, %ecx
	orq	%rdx, %rcx
	cvtsi2ss	%rcx, %xmm0
	addss	%xmm0, %xmm0
	cvtsi2ss	%rax, %xmm1
	movss	%xmm1, 48(%rsp)
	testq	%rax, %rax
	movss	%xmm0, 52(%rsp)
	js	.LBB9_41
	movss	48(%rsp), %xmm0
	movss	%xmm0, 52(%rsp)
.LBB9_41:
	movss	52(%rsp), %xmm0
	divss	260(%rsp), %xmm0
	movss	%xmm0, 84(%rsp)
	.cv_loc	9 2 185 0
	movss	84(%rsp), %xmm0
	cvtss2sd	%xmm0, %xmm0
	leaq	"??_C@_0CB@DNDLHEOG@Time?5elaptsed?5TOTAL?3?5?$CFf?5seconds?6@"(%rip), %rcx
	movaps	%xmm0, %xmm1
	movq	%xmm0, %rdx
	callq	printf
	.cv_loc	9 2 186 0
	movl	420(%rsp), %r9d
	movl	424(%rsp), %r8d
	movl	428(%rsp), %edx
	leaq	"??_C@_0CC@ENPJFCDH@rows?$DN?$CFd?5columns?$DN?5?$CFd?5non?9zero?$DN?$CFd?5@"(%rip), %rcx
	callq	printf
	.cv_loc	9 2 201 0
	movl	468(%rsp), %eax
	addq	$472, %rsp
	retq
.Ltmp80:
.Lfunc_end9:
	.seh_endproc

	.def	fprintf;
	.scl	2;
	.type	32;
	.endef
	.section	.text,"xr",discard,fprintf
	.globl	fprintf
	.p2align	4, 0x90
fprintf:
.Lfunc_begin10:
	.cv_func_id 10
	.cv_loc	10 1 837 0
.seh_proc fprintf
	subq	$72, %rsp
	.seh_stackalloc 72
	.seh_endprologue
	movq	%r9, 104(%rsp)
	movq	%r8, 96(%rsp)
.Ltmp81:
	movq	%rdx, 64(%rsp)
	movq	%rcx, 56(%rsp)
	leaq	96(%rsp), %rax
	.cv_loc	10 1 840 0
	movq	%rax, 40(%rsp)
	.cv_loc	10 1 841 0
	movq	40(%rsp), %r9
	movq	64(%rsp), %rdx
	movq	56(%rsp), %rcx
	xorl	%eax, %eax
	movl	%eax, %r8d
	callq	_vfprintf_l
	movl	%eax, 52(%rsp)
	.cv_loc	10 1 843 0
	movl	52(%rsp), %eax
	addq	$72, %rsp
	retq
.Ltmp82:
.Lfunc_end10:
	.seh_endproc

	.def	printf;
	.scl	2;
	.type	32;
	.endef
	.section	.text,"xr",discard,printf
	.globl	printf
	.p2align	4, 0x90
printf:
.Lfunc_begin11:
	.cv_func_id 11
	.cv_loc	11 1 956 0
.seh_proc printf
	subq	$72, %rsp
	.seh_stackalloc 72
	.seh_endprologue
	movq	%r9, 104(%rsp)
	movq	%r8, 96(%rsp)
	movq	%rdx, 88(%rsp)
.Ltmp83:
	movq	%rcx, 64(%rsp)
	leaq	88(%rsp), %rax
	.cv_loc	11 1 959 0
	movq	%rax, 48(%rsp)
	.cv_loc	11 1 960 0
	movq	48(%rsp), %rax
	movq	%rax, 40(%rsp)
	movq	64(%rsp), %rax
	movq	%rax, 32(%rsp)
	movl	$1, %ecx
	callq	__acrt_iob_func
	movq	32(%rsp), %rdx
	movq	40(%rsp), %r9
	movq	%rax, %rcx
	xorl	%eax, %eax
	movl	%eax, %r8d
	callq	_vfprintf_l
	movl	%eax, 60(%rsp)
	.cv_loc	11 1 962 0
	movl	60(%rsp), %eax
	addq	$72, %rsp
	retq
.Ltmp84:
.Lfunc_end11:
	.seh_endproc

	.def	fscanf;
	.scl	2;
	.type	32;
	.endef
	.section	.text,"xr",discard,fscanf
	.globl	fscanf
	.p2align	4, 0x90
fscanf:
.Lfunc_begin12:
	.cv_func_id 12
	.cv_loc	12 1 1206 0
.seh_proc fscanf
	subq	$72, %rsp
	.seh_stackalloc 72
	.seh_endprologue
	movq	%r9, 104(%rsp)
	movq	%r8, 96(%rsp)
.Ltmp85:
	movq	%rdx, 64(%rsp)
	movq	%rcx, 56(%rsp)
	leaq	96(%rsp), %rax
	.cv_loc	12 1 1209 0
	movq	%rax, 40(%rsp)
	.cv_loc	12 1 1210 0
	movq	40(%rsp), %r9
	movq	64(%rsp), %rdx
	movq	56(%rsp), %rcx
	xorl	%eax, %eax
	movl	%eax, %r8d
	callq	_vfscanf_l
	movl	%eax, 52(%rsp)
	.cv_loc	12 1 1212 0
	movl	52(%rsp), %eax
	addq	$72, %rsp
	retq
.Ltmp86:
.Lfunc_end12:
	.seh_endproc

	.def	_vsprintf_l;
	.scl	2;
	.type	32;
	.endef
	.section	.text,"xr",discard,_vsprintf_l
	.globl	_vsprintf_l
	.p2align	4, 0x90
_vsprintf_l:
.Lfunc_begin13:
	.cv_func_id 13
	.cv_loc	13 1 1458 0
.seh_proc _vsprintf_l
	subq	$72, %rsp
	.seh_stackalloc 72
	.seh_endprologue
.Ltmp87:
	movq	%r9, 64(%rsp)
	movq	%r8, 56(%rsp)
	movq	%rdx, 48(%rsp)
	movq	%rcx, 40(%rsp)
	.cv_loc	13 1 1459 0
	movq	64(%rsp), %rax
	movq	56(%rsp), %r9
	movq	48(%rsp), %r8
	movq	40(%rsp), %rcx
	movq	$-1, %rdx
	movq	%rax, 32(%rsp)
	callq	_vsnprintf_l
	nop
	addq	$72, %rsp
	retq
.Ltmp88:
.Lfunc_end13:
	.seh_endproc

	.def	_vsnprintf_l;
	.scl	2;
	.type	32;
	.endef
	.section	.text,"xr",discard,_vsnprintf_l
	.globl	_vsnprintf_l
	.p2align	4, 0x90
_vsnprintf_l:
.Lfunc_begin14:
	.cv_func_id 14
	.cv_loc	14 1 1391 0
.seh_proc _vsnprintf_l
	subq	$136, %rsp
	.seh_stackalloc 136
	.seh_endprologue
	movq	176(%rsp), %rax
.Ltmp89:
	movq	%r9, 128(%rsp)
	movq	%r8, 120(%rsp)
	movq	%rdx, 112(%rsp)
	movq	%rcx, 104(%rsp)
	.cv_loc	14 1 1392 0
	movq	176(%rsp), %rax
	movq	%rax, 88(%rsp)
	movq	128(%rsp), %rax
	movq	%rax, 80(%rsp)
	movq	120(%rsp), %rax
	movq	%rax, 72(%rsp)
	movq	112(%rsp), %rax
	movq	%rax, 64(%rsp)
	movq	104(%rsp), %rax
	movq	%rax, 56(%rsp)
	callq	__local_stdio_printf_options
	movq	56(%rsp), %rdx
	movq	64(%rsp), %r8
	movq	72(%rsp), %r9
	movq	80(%rsp), %r10
	movq	%rax, %rcx
	movq	88(%rsp), %rax
	movq	(%rcx), %rcx
	orq	$1, %rcx
	movq	%r10, 32(%rsp)
	movq	%rax, 40(%rsp)
	callq	__stdio_common_vsprintf
	movl	%eax, 100(%rsp)
	.cv_loc	14 1 1396 0
	cmpl	$0, 100(%rsp)
	jge	.LBB14_2
	movl	$4294967295, %eax
	movl	%eax, 52(%rsp)
	jmp	.LBB14_3
.LBB14_2:
	movl	100(%rsp), %eax
	movl	%eax, 52(%rsp)
.LBB14_3:
	movl	52(%rsp), %eax
	addq	$136, %rsp
	retq
.Ltmp90:
.Lfunc_end14:
	.seh_endproc

	.def	__local_stdio_printf_options;
	.scl	2;
	.type	32;
	.endef
	.section	.text,"xr",discard,__local_stdio_printf_options
	.globl	__local_stdio_printf_options
	.p2align	4, 0x90
__local_stdio_printf_options:
.Lfunc_begin15:
	.cv_func_id 15
	.cv_file	3 "C:\\Program Files (x86)\\Windows Kits\\10\\Include\\10.0.22621.0\\ucrt\\corecrt_stdio_config.h" "DACF907BDA504AFB0B64F53A242BDAE6" 1
	.cv_loc	15 3 92 0
	leaq	__local_stdio_printf_options._OptionsStorage(%rip), %rax
	retq
.Ltmp91:
.Lfunc_end15:

	.def	_vfprintf_l;
	.scl	2;
	.type	32;
	.endef
	.section	.text,"xr",discard,_vfprintf_l
	.globl	_vfprintf_l
	.p2align	4, 0x90
_vfprintf_l:
.Lfunc_begin16:
	.cv_func_id 16
	.cv_loc	16 1 644 0
.seh_proc _vfprintf_l
	subq	$104, %rsp
	.seh_stackalloc 104
	.seh_endprologue
.Ltmp92:
	movq	%r9, 96(%rsp)
	movq	%r8, 88(%rsp)
	movq	%rdx, 80(%rsp)
	movq	%rcx, 72(%rsp)
	.cv_loc	16 1 645 0
	movq	96(%rsp), %rax
	movq	%rax, 64(%rsp)
	movq	88(%rsp), %rax
	movq	%rax, 56(%rsp)
	movq	80(%rsp), %rax
	movq	%rax, 48(%rsp)
	movq	72(%rsp), %rax
	movq	%rax, 40(%rsp)
	callq	__local_stdio_printf_options
	movq	40(%rsp), %rdx
	movq	48(%rsp), %r8
	movq	56(%rsp), %r9
	movq	%rax, %rcx
	movq	64(%rsp), %rax
	movq	(%rcx), %rcx
	movq	%rax, 32(%rsp)
	callq	__stdio_common_vfprintf
	nop
	addq	$104, %rsp
	retq
.Ltmp93:
.Lfunc_end16:
	.seh_endproc

	.def	_vfscanf_l;
	.scl	2;
	.type	32;
	.endef
	.section	.text,"xr",discard,_vfscanf_l
	.globl	_vfscanf_l
	.p2align	4, 0x90
_vfscanf_l:
.Lfunc_begin17:
	.cv_func_id 17
	.cv_loc	17 1 1064 0
.seh_proc _vfscanf_l
	subq	$104, %rsp
	.seh_stackalloc 104
	.seh_endprologue
.Ltmp94:
	movq	%r9, 96(%rsp)
	movq	%r8, 88(%rsp)
	movq	%rdx, 80(%rsp)
	movq	%rcx, 72(%rsp)
	.cv_loc	17 1 1065 0
	movq	96(%rsp), %rax
	movq	%rax, 64(%rsp)
	movq	88(%rsp), %rax
	movq	%rax, 56(%rsp)
	movq	80(%rsp), %rax
	movq	%rax, 48(%rsp)
	movq	72(%rsp), %rax
	movq	%rax, 40(%rsp)
	callq	__local_stdio_scanf_options
	movq	40(%rsp), %rdx
	movq	48(%rsp), %r8
	movq	56(%rsp), %r9
	movq	%rax, %rcx
	movq	64(%rsp), %rax
	movq	(%rcx), %rcx
	movq	%rax, 32(%rsp)
	callq	__stdio_common_vfscanf
	nop
	addq	$104, %rsp
	retq
.Ltmp95:
.Lfunc_end17:
	.seh_endproc

	.def	__local_stdio_scanf_options;
	.scl	2;
	.type	32;
	.endef
	.section	.text,"xr",discard,__local_stdio_scanf_options
	.globl	__local_stdio_scanf_options
	.p2align	4, 0x90
__local_stdio_scanf_options:
.Lfunc_begin18:
	.cv_func_id 18
	.cv_loc	18 3 102 0
	leaq	__local_stdio_scanf_options._OptionsStorage(%rip), %rax
	retq
.Ltmp96:
.Lfunc_end18:

	.section	.rdata,"dr",discard,"??_C@_0CE@BIKOBMBB@Usage?3?5?$CFs?5?$FLmatrix?9market?9filenam@"
	.globl	"??_C@_0CE@BIKOBMBB@Usage?3?5?$CFs?5?$FLmatrix?9market?9filenam@"
"??_C@_0CE@BIKOBMBB@Usage?3?5?$CFs?5?$FLmatrix?9market?9filenam@":
	.asciz	"Usage: %s [matrix-market-filename]\n"

	.section	.rdata,"dr",discard,"??_C@_01KDCPPGHE@r?$AA@"
	.globl	"??_C@_01KDCPPGHE@r?$AA@"
"??_C@_01KDCPPGHE@r?$AA@":
	.asciz	"r"

	.section	.rdata,"dr",discard,"??_C@_0CJ@MPICKCGA@Could?5not?5process?5Matrix?5Market?5@"
	.globl	"??_C@_0CJ@MPICKCGA@Could?5not?5process?5Matrix?5Market?5@"
"??_C@_0CJ@MPICKCGA@Could?5not?5process?5Matrix?5Market?5@":
	.asciz	"Could not process Matrix Market banner.\n"

	.section	.rdata,"dr",discard,"??_C@_0CK@GGOBCCKJ@Sorry?0?5this?5application?5does?5not@"
	.globl	"??_C@_0CK@GGOBCCKJ@Sorry?0?5this?5application?5does?5not@"
"??_C@_0CK@GGOBCCKJ@Sorry?0?5this?5application?5does?5not@":
	.asciz	"Sorry, this application does not support "

	.section	.rdata,"dr",discard,"??_C@_0BK@FLDFLNI@Market?5Market?5type?3?5?$FL?$CFs?$FN?6?$AA@"
	.globl	"??_C@_0BK@FLDFLNI@Market?5Market?5type?3?5?$FL?$CFs?$FN?6?$AA@"
"??_C@_0BK@FLDFLNI@Market?5Market?5type?3?5?$FL?$CFs?$FN?6?$AA@":
	.asciz	"Market Market type: [%s]\n"

	.section	.rdata,"dr",discard,"??_C@_0L@DPCLJHDN@?$CFd?5?$CFd?5?$CFlg?6?$AA@"
	.globl	"??_C@_0L@DPCLJHDN@?$CFd?5?$CFd?5?$CFlg?6?$AA@"
"??_C@_0L@DPCLJHDN@?$CFd?5?$CFd?5?$CFlg?6?$AA@":
	.asciz	"%d %d %lg\n"

	.section	.rdata,"dr",discard,"??_C@_0DF@GOFACPEA@Time?5elapsed?5to?5form?5the?5new?5vec@"
	.globl	"??_C@_0DF@GOFACPEA@Time?5elapsed?5to?5form?5the?5new?5vec@"
"??_C@_0DF@GOFACPEA@Time?5elapsed?5to?5form?5the?5new?5vec@":
	.asciz	"Time elapsed to form the new vector is : %f seconds\n"

	.section	.rdata,"dr",discard,"??_C@_0DK@NHMCGP@Time?5elapsed?5for?5multiplying?5and@"
	.globl	"??_C@_0DK@NHMCGP@Time?5elapsed?5for?5multiplying?5and@"
"??_C@_0DK@NHMCGP@Time?5elapsed?5for?5multiplying?5and@":
	.asciz	"Time elapsed for multiplying and adding both: %f seconds\n"

	.section	.rdata,"dr",discard,"??_C@_0CB@DNDLHEOG@Time?5elaptsed?5TOTAL?3?5?$CFf?5seconds?6@"
	.globl	"??_C@_0CB@DNDLHEOG@Time?5elaptsed?5TOTAL?3?5?$CFf?5seconds?6@"
"??_C@_0CB@DNDLHEOG@Time?5elaptsed?5TOTAL?3?5?$CFf?5seconds?6@":
	.asciz	"Time elaptsed TOTAL: %f seconds\n"

	.section	.rdata,"dr",discard,"??_C@_0CC@ENPJFCDH@rows?$DN?$CFd?5columns?$DN?5?$CFd?5non?9zero?$DN?$CFd?5@"
	.globl	"??_C@_0CC@ENPJFCDH@rows?$DN?$CFd?5columns?$DN?5?$CFd?5non?9zero?$DN?$CFd?5@"
"??_C@_0CC@ENPJFCDH@rows?$DN?$CFd?5columns?$DN?5?$CFd?5non?9zero?$DN?$CFd?5@":
	.asciz	"rows=%d columns= %d non-zero=%d \n"

	.lcomm	__local_stdio_printf_options._OptionsStorage,8,8
	.lcomm	__local_stdio_scanf_options._OptionsStorage,8,8
	.section	.drectve,"yni"
	.ascii	" /DEFAULTLIB:libcmt.lib"
	.ascii	" /DEFAULTLIB:libircmt.lib"
	.ascii	" /DEFAULTLIB:svml_dispmt.lib"
	.ascii	" /DEFAULTLIB:libdecimal.lib"
	.ascii	" /DEFAULTLIB:libmmt.lib"
	.ascii	" /DEFAULTLIB:oldnames.lib"